; Function Attrs: mustprogress uwtable
define void @_ZN7jsonnet8internal12CompilerPass4fileERPNS0_3ASTERSt6vectorINS0_13FodderElementESaIS6_EE(ptr noundef nonnull align 8 dereferenceable(16) %0, ptr noundef nonnull align 8 dereferenceable(8) %1, ptr noundef nonnull align 8 dereferenceable(24) %2) unnamed_addr #4 align 2 {
  %4 = load ptr, ptr %0, align 8, !tbaa !17
  %5 = getelementptr inbounds nuw i8, ptr %4, i64 48
  %6 = load ptr, ptr %5, align 8
  tail call void %6(ptr noundef nonnull align 8 dereferenceable(16) %0, ptr noundef nonnull align 8 dereferenceable(8) %1)
  %7 = load ptr, ptr %0, align 8, !tbaa !17
  %8 = getelementptr inbounds nuw i8, ptr %7, i64 8
  %9 = load ptr, ptr %8, align 8
  tail call void %9(ptr noundef nonnull align 8 dereferenceable(16) %0, ptr noundef nonnull align 8 dereferenceable(24) %2)
  ret void
}